target datalayout = "e-m:e-p270:32:32-p271:32:32-p272:64:64-i64:64-i128:128-f80:128-n8:16:32:64-S128"
target triple = "x86_64-pc-linux-gnu"

%struct.SwsColorMap = type { %struct.SwsColor, %struct.SwsColor, i32 }
%struct.SwsColor = type { i32, i32, %struct.AVPrimaryCoefficients, %struct.AVRational, %struct.AVRational, %struct.AVRational, %struct.AVRational }
%struct.AVPrimaryCoefficients = type { %struct.AVCIExy, %struct.AVCIExy, %struct.AVCIExy }
%struct.AVCIExy = type { %struct.AVRational, %struct.AVRational }
%struct.AVRational = type { i32, i32 }
%struct.CmsCtx = type { float, float, float, float, float, float, float, float, float, %struct.Gamut, %struct.Gamut, %struct.Gamut, %struct.SwsMatrix3x3, %struct.SwsColorMap, ptr, ptr, ptr, ptr, i32, i32, i32, i32 }
%struct.Gamut = type { %struct.SwsMatrix3x3, %struct.SwsMatrix3x3, %struct.SwsMatrix3x3, %struct.SwsMatrix3x3, ptr, ptr, float, float, float, float, float, float, %struct.AVCIExy, %struct.ICh }
%struct.ICh = type { float, float, float }
%struct.SwsMatrix3x3 = type { [3 x [3 x float]] }

; Function Attrs: nounwind uwtable
define i32 @ff_sws_color_map_generate_dynamic(ptr noundef %0, ptr noundef %1, i32 noundef %2, i32 noundef %3, i32 noundef %4, ptr noundef %5) #0 {
  %7 = alloca i32, align 4
  %8 = alloca ptr, align 8
  %9 = alloca ptr, align 8
  %10 = alloca i32, align 4
  %11 = alloca i32, align 4
  %12 = alloca i32, align 4
  %13 = alloca ptr, align 8
  %14 = alloca ptr, align 8
  %15 = alloca i32, align 4
  %16 = alloca i32, align 4
  %17 = alloca %struct.CmsCtx, align 8
  %18 = alloca %struct.SwsColor, align 8
  %19 = alloca %struct.SwsColor, align 8
  %20 = alloca i32, align 4
  %21 = alloca %struct.SwsMatrix3x3, align 4
  store ptr %0, ptr %8, align 8, !tbaa !26
  store ptr %1, ptr %9, align 8, !tbaa !26
  store i32 %2, ptr %10, align 4, !tbaa !28
  store i32 %3, ptr %11, align 4, !tbaa !28
  store i32 %4, ptr %12, align 4, !tbaa !28
  store ptr %5, ptr %13, align 8, !tbaa !4
  call void @llvm.lifetime.start.p0(i64 8, ptr %14) #13
  call void @llvm.lifetime.start.p0(i64 4, ptr %15) #13
  call void @llvm.lifetime.start.p0(i64 4, ptr %16) #13
  call void @llvm.lifetime.start.p0(i64 952, ptr %17) #13
  %22 = getelementptr inbounds nuw %struct.CmsCtx, ptr %17, i32 0, i32 0
  store float 0.000000e+00, ptr %22, align 8, !tbaa !29
  %23 = getelementptr inbounds nuw %struct.CmsCtx, ptr %17, i32 0, i32 1
  store float 0.000000e+00, ptr %23, align 4, !tbaa !35
  %24 = getelementptr inbounds nuw %struct.CmsCtx, ptr %17, i32 0, i32 2
  store float 0.000000e+00, ptr %24, align 8, !tbaa !36
  %25 = getelementptr inbounds nuw %struct.CmsCtx, ptr %17, i32 0, i32 3
  store float 0.000000e+00, ptr %25, align 4, !tbaa !37
  %26 = getelementptr inbounds nuw %struct.CmsCtx, ptr %17, i32 0, i32 4
  store float 0.000000e+00, ptr %26, align 8, !tbaa !38
  %27 = getelementptr inbounds nuw %struct.CmsCtx, ptr %17, i32 0, i32 5
  store float 0.000000e+00, ptr %27, align 4, !tbaa !39
  %28 = getelementptr inbounds nuw %struct.CmsCtx, ptr %17, i32 0, i32 6
  store float 0.000000e+00, ptr %28, align 8, !tbaa !40
  %29 = getelementptr inbounds nuw %struct.CmsCtx, ptr %17, i32 0, i32 7
  store float 0.000000e+00, ptr %29, align 4, !tbaa !41
  %30 = getelementptr inbounds nuw %struct.CmsCtx, ptr %17, i32 0, i32 8
  store float 0.000000e+00, ptr %30, align 8, !tbaa !42
  %31 = getelementptr i8, ptr %17, i64 36
  call void @llvm.memset.p0.i64(ptr align 4 %31, i8 0, i64 4, i1 false)
  %32 = getelementptr inbounds nuw %struct.CmsCtx, ptr %17, i32 0, i32 9
  %33 = load ptr, ptr %13, align 8, !tbaa !4
  %34 = getelementptr inbounds nuw %struct.SwsColorMap, ptr %33, i32 0, i32 0
  call void @llvm.lifetime.start.p0(i64 88, ptr %18) #13
  call void @llvm.memcpy.p0.p0.i64(ptr align 8 %18, ptr align 4 %34, i64 88, i1 false), !tbaa.struct !43
  call void @gamut_from_colorspace(ptr dead_on_unwind writable sret(%struct.Gamut) align 8 %32, ptr noundef byval(%struct.SwsColor) align 8 %18)
  call void @llvm.lifetime.end.p0(i64 88, ptr %18) #13
  %35 = getelementptr inbounds nuw %struct.CmsCtx, ptr %17, i32 0, i32 10
  call void @llvm.memset.p0.i64(ptr align 8 %35, i8 0, i64 216, i1 false)
  %36 = getelementptr inbounds nuw %struct.CmsCtx, ptr %17, i32 0, i32 11
  %37 = load ptr, ptr %13, align 8, !tbaa !4
  %38 = getelementptr inbounds nuw %struct.SwsColorMap, ptr %37, i32 0, i32 1
  call void @llvm.lifetime.start.p0(i64 88, ptr %19) #13
  call void @llvm.memcpy.p0.p0.i64(ptr align 8 %19, ptr align 4 %38, i64 88, i1 false), !tbaa.struct !43
  call void @gamut_from_colorspace(ptr dead_on_unwind writable sret(%struct.Gamut) align 8 %36, ptr noundef byval(%struct.SwsColor) align 8 %19)
  call void @llvm.lifetime.end.p0(i64 88, ptr %19) #13
  %39 = getelementptr inbounds nuw %struct.CmsCtx, ptr %17, i32 0, i32 12
  call void @llvm.memset.p0.i64(ptr align 8 %39, i8 0, i64 36, i1 false)
  %40 = getelementptr inbounds nuw %struct.CmsCtx, ptr %17, i32 0, i32 13
  %41 = load ptr, ptr %13, align 8, !tbaa !4
  call void @llvm.memcpy.p0.p0.i64(ptr align 4 %40, ptr align 4 %41, i64 180, i1 false), !tbaa.struct !44
  %42 = getelementptr inbounds nuw %struct.CmsCtx, ptr %17, i32 0, i32 14
  store ptr null, ptr %42, align 8, !tbaa !45
  %43 = getelementptr inbounds nuw %struct.CmsCtx, ptr %17, i32 0, i32 15
  store ptr null, ptr %43, align 8, !tbaa !46
  %44 = getelementptr inbounds nuw %struct.CmsCtx, ptr %17, i32 0, i32 16
  %45 = load ptr, ptr %8, align 8, !tbaa !26
  store ptr %45, ptr %44, align 8, !tbaa !47
  %46 = getelementptr inbounds nuw %struct.CmsCtx, ptr %17, i32 0, i32 17
  %47 = load ptr, ptr %9, align 8, !tbaa !26
  store ptr %47, ptr %46, align 8, !tbaa !48
  %48 = getelementptr inbounds nuw %struct.CmsCtx, ptr %17, i32 0, i32 18
  store i32 0, ptr %48, align 8, !tbaa !49
  %49 = getelementptr inbounds nuw %struct.CmsCtx, ptr %17, i32 0, i32 19
  %50 = load i32, ptr %10, align 4, !tbaa !28
  store i32 %50, ptr %49, align 4, !tbaa !50
  %51 = getelementptr inbounds nuw %struct.CmsCtx, ptr %17, i32 0, i32 20
  %52 = load i32, ptr %11, align 4, !tbaa !28
  store i32 %52, ptr %51, align 8, !tbaa !51
  %53 = getelementptr inbounds nuw %struct.CmsCtx, ptr %17, i32 0, i32 21
  %54 = load i32, ptr %12, align 4, !tbaa !28
  store i32 %54, ptr %53, align 4, !tbaa !52
  %55 = getelementptr inbounds nuw %struct.CmsCtx, ptr %17, i32 0, i32 13
  %56 = getelementptr inbounds nuw %struct.SwsColorMap, ptr %55, i32 0, i32 2
  %57 = load i32, ptr %56, align 4, !tbaa !53
  switch i32 %57, label %66 [
    i32 0, label %58
    i32 1, label %60
    i32 2, label %62
    i32 3, label %64
  ]

58:                                               ; preds = %6
  %59 = getelementptr inbounds nuw %struct.CmsCtx, ptr %17, i32 0, i32 15
  store ptr @perceptual, ptr %59, align 8, !tbaa !46
  br label %67

60:                                               ; preds = %6
  %61 = getelementptr inbounds nuw %struct.CmsCtx, ptr %17, i32 0, i32 15
  store ptr @relative, ptr %61, align 8, !tbaa !46
  br label %67

62:                                               ; preds = %6
  %63 = getelementptr inbounds nuw %struct.CmsCtx, ptr %17, i32 0, i32 15
  store ptr @saturation, ptr %63, align 8, !tbaa !46
  br label %67

64:                                               ; preds = %6
  %65 = getelementptr inbounds nuw %struct.CmsCtx, ptr %17, i32 0, i32 15
  store ptr @absolute, ptr %65, align 8, !tbaa !46
  br label %67

66:                                               ; preds = %6
  store i32 -22, ptr %7, align 4
  store i32 1, ptr %20, align 4
  br label %141

67:                                               ; preds = %64, %62, %60, %58
  %68 = load ptr, ptr %9, align 8, !tbaa !26
  %69 = icmp ne ptr %68, null
  br i1 %69, label %71, label %70

70:                                               ; preds = %67
  call void @tone_map_setup(ptr noundef %17, i1 noundef zeroext false)
  br label %71

71:                                               ; preds = %70, %67
  %72 = getelementptr inbounds nuw %struct.CmsCtx, ptr %17, i32 0, i32 10
  %73 = getelementptr inbounds nuw %struct.CmsCtx, ptr %17, i32 0, i32 9
  call void @llvm.memcpy.p0.p0.i64(ptr align 8 %72, ptr align 8 %73, i64 216, i1 false), !tbaa.struct !54
  %74 = getelementptr inbounds nuw %struct.CmsCtx, ptr %17, i32 0, i32 11
  %75 = getelementptr inbounds nuw %struct.Gamut, ptr %74, i32 0, i32 10
  %76 = load float, ptr %75, align 8, !tbaa !58
  %77 = getelementptr inbounds nuw %struct.CmsCtx, ptr %17, i32 0, i32 10
  %78 = getelementptr inbounds nuw %struct.Gamut, ptr %77, i32 0, i32 10
  store float %76, ptr %78, align 8, !tbaa !59
  %79 = getelementptr inbounds nuw %struct.CmsCtx, ptr %17, i32 0, i32 11
  %80 = getelementptr inbounds nuw %struct.Gamut, ptr %79, i32 0, i32 11
  %81 = load float, ptr %80, align 4, !tbaa !60
  %82 = getelementptr inbounds nuw %struct.CmsCtx, ptr %17, i32 0, i32 10
  %83 = getelementptr inbounds nuw %struct.Gamut, ptr %82, i32 0, i32 11
  store float %81, ptr %83, align 4, !tbaa !61
  %84 = getelementptr inbounds nuw %struct.CmsCtx, ptr %17, i32 0, i32 11
  %85 = getelementptr inbounds nuw %struct.Gamut, ptr %84, i32 0, i32 8
  %86 = load float, ptr %85, align 8, !tbaa !62
  %87 = getelementptr inbounds nuw %struct.CmsCtx, ptr %17, i32 0, i32 10
  %88 = getelementptr inbounds nuw %struct.Gamut, ptr %87, i32 0, i32 8
  store float %86, ptr %88, align 8, !tbaa !63
  %89 = getelementptr inbounds nuw %struct.CmsCtx, ptr %17, i32 0, i32 11
  %90 = getelementptr inbounds nuw %struct.Gamut, ptr %89, i32 0, i32 9
  %91 = load float, ptr %90, align 4, !tbaa !64
  %92 = getelementptr inbounds nuw %struct.CmsCtx, ptr %17, i32 0, i32 10
  %93 = getelementptr inbounds nuw %struct.Gamut, ptr %92, i32 0, i32 9
  store float %91, ptr %93, align 4, !tbaa !65
  %94 = getelementptr inbounds nuw %struct.CmsCtx, ptr %17, i32 0, i32 13
  %95 = getelementptr inbounds nuw %struct.SwsColorMap, ptr %94, i32 0, i32 2
  %96 = load i32, ptr %95, align 4, !tbaa !53
  %97 = icmp eq i32 %96, 3
  br i1 %97, label %98, label %115

98:                                               ; preds = %71
  %99 = getelementptr inbounds nuw %struct.CmsCtx, ptr %17, i32 0, i32 12
  call void @llvm.lifetime.start.p0(i64 36, ptr %21) #13
  %100 = getelementptr inbounds nuw %struct.CmsCtx, ptr %17, i32 0, i32 13
  %101 = getelementptr inbounds nuw %struct.SwsColorMap, ptr %100, i32 0, i32 1
  %102 = getelementptr inbounds nuw %struct.SwsColor, ptr %101, i32 0, i32 2
  %103 = getelementptr inbounds nuw %struct.CmsCtx, ptr %17, i32 0, i32 11
  %104 = getelementptr inbounds nuw %struct.Gamut, ptr %103, i32 0, i32 12
  %105 = getelementptr inbounds nuw %struct.CmsCtx, ptr %17, i32 0, i32 9
  %106 = getelementptr inbounds nuw %struct.Gamut, ptr %105, i32 0, i32 12
  %107 = getelementptr inbounds nuw { i64, i64 }, ptr %104, i32 0, i32 0
  %108 = load i64, ptr %107, align 8
  %109 = getelementptr inbounds nuw { i64, i64 }, ptr %104, i32 0, i32 1
  %110 = load i64, ptr %109, align 8
  %111 = getelementptr inbounds nuw { i64, i64 }, ptr %106, i32 0, i32 0
  %112 = load i64, ptr %111, align 8
  %113 = getelementptr inbounds nuw { i64, i64 }, ptr %106, i32 0, i32 1
  %114 = load i64, ptr %113, align 8
  call void @ff_sws_get_adaptation(ptr dead_on_unwind writable sret(%struct.SwsMatrix3x3) align 4 %21, ptr noundef %102, i64 %108, i64 %110, i64 %112, i64 %114)
  call void @llvm.memcpy.p0.p0.i64(ptr align 8 %99, ptr align 4 %21, i64 36, i1 false), !tbaa.struct !66
  call void @llvm.lifetime.end.p0(i64 36, ptr %21) #13
  br label %115

115:                                              ; preds = %98, %71
  %116 = call i32 @avpriv_slicethread_create(ptr noundef %14, ptr noundef %17, ptr noundef @generate_slice, ptr noundef null, i32 noundef 0)
  store i32 %116, ptr %15, align 4, !tbaa !28
  %117 = load i32, ptr %15, align 4, !tbaa !28
  %118 = icmp slt i32 %117, 0
  br i1 %118, label %119, label %121

119:                                              ; preds = %115
  %120 = load i32, ptr %15, align 4, !tbaa !28
  store i32 %120, ptr %7, align 4
  store i32 1, ptr %20, align 4
  br label %141

121:                                              ; preds = %115
  %122 = getelementptr inbounds nuw %struct.CmsCtx, ptr %17, i32 0, i32 19
  %123 = load i32, ptr %122, align 4, !tbaa !50
  %124 = load i32, ptr %15, align 4, !tbaa !28
  %125 = add nsw i32 %123, %124
  %126 = sub nsw i32 %125, 1
  %127 = load i32, ptr %15, align 4, !tbaa !28
  %128 = sdiv i32 %126, %127
  %129 = getelementptr inbounds nuw %struct.CmsCtx, ptr %17, i32 0, i32 18
  store i32 %128, ptr %129, align 8, !tbaa !49
  %130 = getelementptr inbounds nuw %struct.CmsCtx, ptr %17, i32 0, i32 19
  %131 = load i32, ptr %130, align 4, !tbaa !50
  %132 = getelementptr inbounds nuw %struct.CmsCtx, ptr %17, i32 0, i32 18
  %133 = load i32, ptr %132, align 8, !tbaa !49
  %134 = add nsw i32 %131, %133
  %135 = sub nsw i32 %134, 1
  %136 = getelementptr inbounds nuw %struct.CmsCtx, ptr %17, i32 0, i32 18
  %137 = load i32, ptr %136, align 8, !tbaa !49
  %138 = sdiv i32 %135, %137
  store i32 %138, ptr %16, align 4, !tbaa !28
  %139 = load ptr, ptr %14, align 8, !tbaa !67
  %140 = load i32, ptr %16, align 4, !tbaa !28
  call void @avpriv_slicethread_execute(ptr noundef %139, i32 noundef %140, i32 noundef 0)
  call void @avpriv_slicethread_free(ptr noundef %14)
  store i32 0, ptr %7, align 4
  store i32 1, ptr %20, align 4
  br label %141

141:                                              ; preds = %121, %119, %66
  call void @llvm.lifetime.end.p0(i64 952, ptr %17) #13
  call void @llvm.lifetime.end.p0(i64 4, ptr %16) #13
  call void @llvm.lifetime.end.p0(i64 4, ptr %15) #13
  call void @llvm.lifetime.end.p0(i64 8, ptr %14) #13
  %142 = load i32, ptr %7, align 4
  ret i32 %142
}