; Function Attrs: nounwind uwtable
define range(i32 -2147483648, 1) i32 @ff_sws_color_map_generate_dynamic(ptr noundef %0, ptr noundef %1, i32 noundef %2, i32 noundef %3, i32 noundef %4, ptr noundef readonly captures(none) %5) local_unnamed_addr #0 {
  %7 = alloca ptr, align 8
  %8 = alloca %struct.CmsCtx, align 8
  %9 = alloca %struct.SwsColor, align 8
  %10 = alloca %struct.SwsColor, align 8
  %11 = alloca %struct.SwsMatrix3x3, align 4
  call void @llvm.lifetime.start.p0(i64 8, ptr nonnull %7) #14
  call void @llvm.lifetime.start.p0(i64 952, ptr nonnull %8) #14
  %12 = getelementptr inbounds nuw i8, ptr %8, i64 40
  call void @llvm.memset.p0.i64(ptr noundef nonnull align 8 dereferenceable(40) %8, i8 0, i64 40, i1 false)
  call void @llvm.lifetime.start.p0(i64 88, ptr nonnull %9) #14
  call void @llvm.memcpy.p0.p0.i64(ptr noundef nonnull align 8 dereferenceable(88) %9, ptr noundef nonnull align 4 dereferenceable(88) %5, i64 88, i1 false), !tbaa.struct !17
  call fastcc void @gamut_from_colorspace(ptr dead_on_unwind noalias writable align 8 %12, ptr noundef nonnull byval(%struct.SwsColor) align 8 %9)
  call void @llvm.lifetime.end.p0(i64 88, ptr nonnull %9) #14
  %13 = getelementptr inbounds nuw i8, ptr %8, i64 256
  call void @llvm.memset.p0.i64(ptr noundef nonnull align 8 dereferenceable(216) %13, i8 0, i64 216, i1 false)
  %14 = getelementptr inbounds nuw i8, ptr %8, i64 472
  %15 = getelementptr inbounds nuw i8, ptr %5, i64 88
  call void @llvm.lifetime.start.p0(i64 88, ptr nonnull %10) #14
  call void @llvm.memcpy.p0.p0.i64(ptr noundef nonnull align 8 dereferenceable(88) %10, ptr noundef nonnull align 4 dereferenceable(88) %15, i64 88, i1 false), !tbaa.struct !17
  call fastcc void @gamut_from_colorspace(ptr dead_on_unwind noalias writable align 8 %14, ptr noundef nonnull byval(%struct.SwsColor) align 8 %10)
  call void @llvm.lifetime.end.p0(i64 88, ptr nonnull %10) #14
  %16 = getelementptr inbounds nuw i8, ptr %8, i64 688
  call void @llvm.memset.p0.i64(ptr noundef nonnull align 8 dereferenceable(36) %16, i8 0, i64 36, i1 false)
  %17 = getelementptr inbounds nuw i8, ptr %8, i64 724
  call void @llvm.memcpy.p0.p0.i64(ptr noundef nonnull align 4 dereferenceable(180) %17, ptr noundef nonnull align 4 dereferenceable(180) %5, i64 180, i1 false), !tbaa.struct !19
  %18 = getelementptr inbounds nuw i8, ptr %8, i64 904
  %19 = getelementptr inbounds nuw i8, ptr %8, i64 920
  call void @llvm.memset.p0.i64(ptr noundef nonnull align 8 dereferenceable(16) %18, i8 0, i64 16, i1 false)
  store ptr %0, ptr %19, align 8, !tbaa !20
  %20 = getelementptr inbounds nuw i8, ptr %8, i64 928
  store ptr %1, ptr %20, align 8, !tbaa !28
  %21 = getelementptr inbounds nuw i8, ptr %8, i64 936
  store i32 0, ptr %21, align 8, !tbaa !29
  %22 = getelementptr inbounds nuw i8, ptr %8, i64 940
  store i32 %2, ptr %22, align 4, !tbaa !30
  %23 = getelementptr inbounds nuw i8, ptr %8, i64 944
  store i32 %3, ptr %23, align 8, !tbaa !31
  %24 = getelementptr inbounds nuw i8, ptr %8, i64 948
  store i32 %4, ptr %24, align 4, !tbaa !32
  %25 = getelementptr inbounds nuw i8, ptr %8, i64 900
  %26 = load i32, ptr %25, align 4, !tbaa !33
  %27 = icmp ult i32 %26, 4
  br i1 %27, label %switch.lookup, label %68

switch.lookup:                                    ; preds = %6
  %28 = getelementptr inbounds nuw i8, ptr %8, i64 912
  %29 = zext nneg i32 %26 to i64
  %switch.gep = getelementptr inbounds nuw [4 x ptr], ptr @switch.table.ff_sws_color_map_generate_dynamic, i64 0, i64 %29
  %switch.load = load ptr, ptr %switch.gep, align 8
  store ptr %switch.load, ptr %28, align 8, !tbaa !34
  %.not = icmp eq ptr %1, null
  br i1 %.not, label %30, label %31

30:                                               ; preds = %switch.lookup
  call fastcc void @tone_map_setup(ptr noundef %8, i1 noundef zeroext false)
  %.pre = load i32, ptr %25, align 4, !tbaa !33
  br label %31

31:                                               ; preds = %30, %switch.lookup
  %32 = phi i32 [ %.pre, %30 ], [ %26, %switch.lookup ]
  call void @llvm.memcpy.p0.p0.i64(ptr noundef nonnull align 8 dereferenceable(216) %13, ptr noundef nonnull align 8 dereferenceable(216) %12, i64 216, i1 false), !tbaa.struct !35
  %33 = getelementptr inbounds nuw i8, ptr %8, i64 648
  %34 = load float, ptr %33, align 8, !tbaa !39
  %35 = getelementptr inbounds nuw i8, ptr %8, i64 432
  store float %34, ptr %35, align 8, !tbaa !40
  %36 = getelementptr inbounds nuw i8, ptr %8, i64 652
  %37 = load float, ptr %36, align 4, !tbaa !41
  %38 = getelementptr inbounds nuw i8, ptr %8, i64 436
  store float %37, ptr %38, align 4, !tbaa !42
  %39 = getelementptr inbounds nuw i8, ptr %8, i64 640
  %40 = load float, ptr %39, align 8, !tbaa !43
  %41 = getelementptr inbounds nuw i8, ptr %8, i64 424
  store float %40, ptr %41, align 8, !tbaa !44
  %42 = getelementptr inbounds nuw i8, ptr %8, i64 644
  %43 = load float, ptr %42, align 4, !tbaa !45
  %44 = getelementptr inbounds nuw i8, ptr %8, i64 428
  store float %43, ptr %44, align 4, !tbaa !46
  %45 = icmp eq i32 %32, 3
  br i1 %45, label %46, label %56

46:                                               ; preds = %31
  call void @llvm.lifetime.start.p0(i64 36, ptr nonnull %11) #14
  %47 = getelementptr inbounds nuw i8, ptr %8, i64 820
  %48 = getelementptr inbounds nuw i8, ptr %8, i64 656
  %49 = getelementptr inbounds nuw i8, ptr %8, i64 224
  %50 = load i64, ptr %48, align 8
  %51 = getelementptr inbounds nuw i8, ptr %8, i64 664
  %52 = load i64, ptr %51, align 8
  %53 = load i64, ptr %49, align 8
  %54 = getelementptr inbounds nuw i8, ptr %8, i64 232
  %55 = load i64, ptr %54, align 8
  call void @ff_sws_get_adaptation(ptr dead_on_unwind nonnull writable sret(%struct.SwsMatrix3x3) align 4 %11, ptr noundef nonnull %47, i64 %50, i64 %52, i64 %53, i64 %55) #14
  call void @llvm.memcpy.p0.p0.i64(ptr noundef nonnull align 8 dereferenceable(36) %16, ptr noundef nonnull align 4 dereferenceable(36) %11, i64 36, i1 false), !tbaa.struct !47
  call void @llvm.lifetime.end.p0(i64 36, ptr nonnull %11) #14
  br label %56

56:                                               ; preds = %46, %31
  %57 = call i32 @avpriv_slicethread_create(ptr noundef nonnull %7, ptr noundef nonnull %8, ptr noundef nonnull @generate_slice, ptr noundef null, i32 noundef 0) #14
  %58 = icmp slt i32 %57, 0
  br i1 %58, label %68, label %59

59:                                               ; preds = %56
  %60 = load i32, ptr %22, align 4, !tbaa !30
  %61 = add nsw i32 %57, -1
  %62 = add i32 %61, %60
  %63 = sdiv i32 %62, %57
  store i32 %63, ptr %21, align 8, !tbaa !29
  %64 = add i32 %60, -1
  %65 = add i32 %64, %63
  %66 = sdiv i32 %65, %63
  %67 = load ptr, ptr %7, align 8, !tbaa !48
  call void @avpriv_slicethread_execute(ptr noundef %67, i32 noundef %66, i32 noundef 0) #14
  call void @avpriv_slicethread_free(ptr noundef nonnull %7) #14
  br label %68

68:                                               ; preds = %6, %56, %59
  %.0 = phi i32 [ 0, %59 ], [ -22, %6 ], [ %57, %56 ]
  call void @llvm.lifetime.end.p0(i64 952, ptr nonnull %8) #14
  call void @llvm.lifetime.end.p0(i64 8, ptr nonnull %7) #14
  ret i32 %.0
}